(lp0
F0.017916399602940985
aF0.017971298085556236
a(lp1
F103.606976
aF103.62489239960294
aF103.64280879920588
aF103.66072519880882
aF103.67864159841177
aF103.69655799801471
aF103.71447439761765
aF103.73239079722059
aF103.75030719682353
aF103.76822359642647
aF103.78613999602942
aF103.80405639563236
aF103.8219727952353
aF103.83988919483824
aF103.85780559444117
aF103.87572199404411
aF103.89363839364705
aF103.91155479325
aF103.92947119285294
aF103.94738759245588
aF103.96530399205882
aF103.98322039166176
aF104.0011367912647
aF104.01905319086765
aa(lp2
F1.237003
aF1.2549742980855563
aF1.2729455961711125
aF1.290916894256669
aF1.308888192342225
aF1.3268594904277813
aF1.3448307885133375
aF1.3628020865988937
aF1.3807733846844499
aF1.398744682770006
aF1.4167159808555625
aF1.4346872789411187
aF1.452658577026675
aF1.470629875112231
aa.