(dp0
(I7
I3
tp1
ccopy_reg
_reconstructor
p2
(cclasses
zone
p3
c__builtin__
object
p4
Ntp5
Rp6
(dp7
S'y'
p8
F1.290916894256669
sS'x'
p9
F103.73239079722059
sS'relation_with_poly'
p10
I0
sS'loc_grid'
p11
(I7
I3
tp12
sbs(I6
I9
tp13
g2
(g3
g4
Ntp14
Rp15
(dp16
g8
F1.398744682770006
sg9
F103.71447439761765
sg10
I0
sg11
(I6
I9
tp17
sbs(I17
I11
tp18
g2
(g3
g4
Ntp19
Rp20
(dp21
g8
F1.4346872789411187
sg9
F103.91155479325
sg10
I2
sg11
(I17
I11
tp22
sbs(I12
I1
tp23
g2
(g3
g4
Ntp24
Rp25
(dp26
g8
F1.2549742980855563
sg9
F103.8219727952353
sg10
I0
sg11
(I12
I1
tp27
sbs(I11
I11
tp28
g2
(g3
g4
Ntp29
Rp30
(dp31
g8
F1.4346872789411187
sg9
F103.80405639563236
sg10
I0
sg11
(I11
I11
tp32
sbs(I16
I6
tp33
g2
(g3
g4
Ntp34
Rp35
(dp36
g8
F1.3448307885133375
sg9
F103.89363839364705
sg10
I0
sg11
(I16
I6
tp37
sbs(I7
I12
tp38
g2
(g3
g4
Ntp39
Rp40
(dp41
g8
F1.452658577026675
sg9
F103.73239079722059
sg10
I2
sg11
(I7
I12
tp42
sbs(I14
I4
tp43
g2
(g3
g4
Ntp44
Rp45
(dp46
g8
F1.308888192342225
sg9
F103.85780559444117
sg10
I0
sg11
(I14
I4
tp47
sbs(I13
I4
tp48
g2
(g3
g4
Ntp49
Rp50
(dp51
g8
F1.308888192342225
sg9
F103.83988919483824
sg10
I0
sg11
(I13
I4
tp52
sbs(I12
I12
tp53
g2
(g3
g4
Ntp54
Rp55
(dp56
g8
F1.452658577026675
sg9
F103.8219727952353
sg10
I1
sg11
(I12
I12
tp57
sbs(I19
I4
tp58
g2
(g3
g4
Ntp59
Rp60
(dp61
g8
F1.308888192342225
sg9
F103.94738759245588
sg10
I1
sg11
(I19
I4
tp62
sbs(I18
I4
tp63
g2
(g3
g4
Ntp64
Rp65
(dp66
g8
F1.308888192342225
sg9
F103.92947119285294
sg10
I0
sg11
(I18
I4
tp67
sbs(I0
I7
tp68
g2
(g3
g4
Ntp69
Rp70
(dp71
g8
F1.3628020865988937
sg9
F103.606976
sg10
I2
sg11
(I0
I7
tp72
sbs(I15
I1
tp73
g2
(g3
g4
Ntp74
Rp75
(dp76
g8
F1.2549742980855563
sg9
F103.87572199404411
sg10
I2
sg11
(I15
I1
tp77
sbs(I21
I9
tp78
g2
(g3
g4
Ntp79
Rp80
(dp81
g8
F1.398744682770006
sg9
F103.98322039166176
sg10
I2
sg11
(I21
I9
tp82
sbs(I20
I7
tp83
g2
(g3
g4
Ntp84
Rp85
(dp86
g8
F1.3628020865988937
sg9
F103.96530399205882
sg10
I0
sg11
(I20
I7
tp87
sbs(I1
I6
tp88
g2
(g3
g4
Ntp89
Rp90
(dp91
g8
F1.3448307885133375
sg9
F103.62489239960294
sg10
I1
sg11
(I1
I6
tp92
sbs(I0
I10
tp93
g2
(g3
g4
Ntp94
Rp95
(dp96
g8
F1.4167159808555625
sg9
F103.606976
sg10
I2
sg11
(I0
I10
tp97
sbs(I17
I13
tp98
g2
(g3
g4
Ntp99
Rp100
(dp101
g8
F1.470629875112231
sg9
F103.91155479325
sg10
I2
sg11
(I17
I13
tp102
sbs(I21
I6
tp103
g2
(g3
g4
Ntp104
Rp105
(dp106
g8
F1.3448307885133375
sg9
F103.98322039166176
sg10
I0
sg11
(I21
I6
tp107
sbs(I3
I7
tp108
g2
(g3
g4
Ntp109
Rp110
(dp111
g8
F1.3628020865988937
sg9
F103.66072519880882
sg10
I0
sg11
(I3
I7
tp112
sbs(I2
I5
tp113
g2
(g3
g4
Ntp114
Rp115
(dp116
g8
F1.3268594904277813
sg9
F103.64280879920588
sg10
I0
sg11
(I2
I5
tp117
sbs(I1
I11
tp118
g2
(g3
g4
Ntp119
Rp120
(dp121
g8
F1.4346872789411187
sg9
F103.62489239960294
sg10
I2
sg11
(I1
I11
tp122
sbs(I8
I5
tp123
g2
(g3
g4
Ntp124
Rp125
(dp126
g8
F1.3268594904277813
sg9
F103.75030719682353
sg10
I0
sg11
(I8
I5
tp127
sbs(I23
I7
tp128
g2
(g3
g4
Ntp129
Rp130
(dp131
g8
F1.3628020865988937
sg9
F104.01905319086765
sg10
I1
sg11
(I23
I7
tp132
sbs(I5
I8
tp133
g2
(g3
g4
Ntp134
Rp135
(dp136
g8
F1.3807733846844499
sg9
F103.69655799801471
sg10
I0
sg11
(I5
I8
tp137
sbs(I4
I0
tp138
g2
(g3
g4
Ntp139
Rp140
(dp141
g8
F1.237003
sg9
F103.67864159841177
sg10
I2
sg11
(I4
I0
tp142
sbs(I10
I8
tp143
g2
(g3
g4
Ntp144
Rp145
(dp146
g8
F1.3807733846844499
sg9
F103.78613999602942
sg10
I0
sg11
(I10
I8
tp147
sbs(I9
I0
tp148
g2
(g3
g4
Ntp149
Rp150
(dp151
g8
F1.237003
sg9
F103.76822359642647
sg10
I1
sg11
(I9
I0
tp152
sbs(I16
I3
tp153
g2
(g3
g4
Ntp154
Rp155
(dp156
g8
F1.290916894256669
sg9
F103.89363839364705
sg10
I1
sg11
(I16
I3
tp157
sbs(I6
I7
tp158
g2
(g3
g4
Ntp159
Rp160
(dp161
g8
F1.3628020865988937
sg9
F103.71447439761765
sg10
I0
sg11
(I6
I7
tp162
sbs(I5
I5
tp163
g2
(g3
g4
Ntp164
Rp165
(dp166
g8
F1.3268594904277813
sg9
F103.69655799801471
sg10
I0
sg11
(I5
I5
tp167
sbs(I11
I5
tp168
g2
(g3
g4
Ntp169
Rp170
(dp171
g8
F1.3268594904277813
sg9
F103.80405639563236
sg10
I0
sg11
(I11
I5
tp172
sbs(I10
I7
tp173
g2
(g3
g4
Ntp174
Rp175
(dp176
g8
F1.3628020865988937
sg9
F103.78613999602942
sg10
I0
sg11
(I10
I7
tp177
sbs(I7
I6
tp178
g2
(g3
g4
Ntp179
Rp180
(dp181
g8
F1.3448307885133375
sg9
F103.73239079722059
sg10
I0
sg11
(I7
I6
tp182
sbs(I6
I10
tp183
g2
(g3
g4
Ntp184
Rp185
(dp186
g8
F1.4167159808555625
sg9
F103.71447439761765
sg10
I0
sg11
(I6
I10
tp187
sbs(I12
I6
tp188
g2
(g3
g4
Ntp189
Rp190
(dp191
g8
F1.3448307885133375
sg9
F103.8219727952353
sg10
I0
sg11
(I12
I6
tp192
sbs(I17
I2
tp193
g2
(g3
g4
Ntp194
Rp195
(dp196
g8
F1.2729455961711125
sg9
F103.91155479325
sg10
I2
sg11
(I17
I2
tp197
sbs(I15
I11
tp198
g2
(g3
g4
Ntp199
Rp200
(dp201
g8
F1.4346872789411187
sg9
F103.87572199404411
sg10
I1
sg11
(I15
I11
tp202
sbs(I14
I1
tp203
g2
(g3
g4
Ntp204
Rp205
(dp206
g8
F1.2549742980855563
sg9
F103.85780559444117
sg10
I1
sg11
(I14
I1
tp207
sbs(I13
I7
tp208
g2
(g3
g4
Ntp209
Rp210
(dp211
g8
F1.3628020865988937
sg9
F103.83988919483824
sg10
I0
sg11
(I13
I7
tp212
sbs(I20
I9
tp213
g2
(g3
g4
Ntp214
Rp215
(dp216
g8
F1.398744682770006
sg9
F103.96530399205882
sg10
I2
sg11
(I20
I9
tp217
sbs(I19
I3
tp218
g2
(g3
g4
Ntp219
Rp220
(dp221
g8
F1.290916894256669
sg9
F103.94738759245588
sg10
I1
sg11
(I19
I3
tp222
sbs(I18
I9
tp223
g2
(g3
g4
Ntp224
Rp225
(dp226
g8
F1.398744682770006
sg9
F103.92947119285294
sg10
I1
sg11
(I18
I9
tp227
sbs(I0
I4
tp228
g2
(g3
g4
Ntp229
Rp230
(dp231
g8
F1.308888192342225
sg9
F103.606976
sg10
I1
sg11
(I0
I4
tp232
sbs(I15
I4
tp233
g2
(g3
g4
Ntp234
Rp235
(dp236
g8
F1.308888192342225
sg9
F103.87572199404411
sg10
I0
sg11
(I15
I4
tp237
sbs(I21
I12
tp238
g2
(g3
g4
Ntp239
Rp240
(dp241
g8
F1.452658577026675
sg9
F103.98322039166176
sg10
I2
sg11
(I21
I12
tp242
sbs(I20
I4
tp243
g2
(g3
g4
Ntp244
Rp245
(dp246
g8
F1.308888192342225
sg9
F103.96530399205882
sg10
I1
sg11
(I20
I4
tp247
sbs(I1
I1
tp248
g2
(g3
g4
Ntp249
Rp250
(dp251
g8
F1.2549742980855563
sg9
F103.62489239960294
sg10
I1
sg11
(I1
I1
tp252
sbs(I22
I3
tp253
g2
(g3
g4
Ntp254
Rp255
(dp256
g8
F1.290916894256669
sg9
F104.0011367912647
sg10
I2
sg11
(I22
I3
tp257
sbs(I4
I10
tp258
g2
(g3
g4
Ntp259
Rp260
(dp261
g8
F1.4167159808555625
sg9
F103.67864159841177
sg10
I1
sg11
(I4
I10
tp262
sbs(I3
I2
tp263
g2
(g3
g4
Ntp264
Rp265
(dp266
g8
F1.2729455961711125
sg9
F103.66072519880882
sg10
I1
sg11
(I3
I2
tp267
sbs(I2
I6
tp268
g2
(g3
g4
Ntp269
Rp270
(dp271
g8
F1.3448307885133375
sg9
F103.64280879920588
sg10
I1
sg11
(I2
I6
tp272
sbs(I8
I2
tp273
g2
(g3
g4
Ntp274
Rp275
(dp276
g8
F1.2729455961711125
sg9
F103.75030719682353
sg10
I1
sg11
(I8
I2
tp277
sbs(I23
I10
tp278
g2
(g3
g4
Ntp279
Rp280
(dp281
g8
F1.4167159808555625
sg9
F104.01905319086765
sg10
I2
sg11
(I23
I10
tp282
sbs(I5
I11
tp283
g2
(g3
g4
Ntp284
Rp285
(dp286
g8
F1.4346872789411187
sg9
F103.69655799801471
sg10
I1
sg11
(I5
I11
tp287
sbs(I4
I5
tp288
g2
(g3
g4
Ntp289
Rp290
(dp291
g8
F1.3268594904277813
sg9
F103.67864159841177
sg10
I0
sg11
(I4
I5
tp292
sbs(I10
I13
tp293
g2
(g3
g4
Ntp294
Rp295
(dp296
g8
F1.470629875112231
sg9
F103.78613999602942
sg10
I2
sg11
(I10
I13
tp297
sbs(I9
I3
tp298
g2
(g3
g4
Ntp299
Rp300
(dp301
g8
F1.290916894256669
sg9
F103.76822359642647
sg10
I0
sg11
(I9
I3
tp302
sbs(I6
I0
tp303
g2
(g3
g4
Ntp304
Rp305
(dp306
g8
F1.237003
sg9
F103.71447439761765
sg10
I2
sg11
(I6
I0
tp307
sbs(I11
I0
tp308
g2
(g3
g4
Ntp309
Rp310
(dp311
g8
F1.237003
sg9
F103.80405639563236
sg10
I1
sg11
(I11
I0
tp312
sbs(I7
I5
tp313
g2
(g3
g4
Ntp314
Rp315
(dp316
g8
F1.3268594904277813
sg9
F103.73239079722059
sg10
I0
sg11
(I7
I5
tp317
sbs(I12
I11
tp318
g2
(g3
g4
Ntp319
Rp320
(dp321
g8
F1.4346872789411187
sg9
F103.8219727952353
sg10
I0
sg11
(I12
I11
tp322
sbs(I19
I13
tp323
g2
(g3
g4
Ntp324
Rp325
(dp326
g8
F1.470629875112231
sg9
F103.94738759245588
sg10
I2
sg11
(I19
I13
tp327
sbs(I16
I5
tp328
g2
(g3
g4
Ntp329
Rp330
(dp331
g8
F1.3268594904277813
sg9
F103.89363839364705
sg10
I0
sg11
(I16
I5
tp332
sbs(I14
I2
tp333
g2
(g3
g4
Ntp334
Rp335
(dp336
g8
F1.2729455961711125
sg9
F103.85780559444117
sg10
I1
sg11
(I14
I2
tp337
sbs(I13
I10
tp338
g2
(g3
g4
Ntp339
Rp340
(dp341
g8
F1.4167159808555625
sg9
F103.83988919483824
sg10
I0
sg11
(I13
I10
tp342
sbs(I18
I10
tp343
g2
(g3
g4
Ntp344
Rp345
(dp346
g8
F1.4167159808555625
sg9
F103.92947119285294
sg10
I2
sg11
(I18
I10
tp347
sbs(I0
I1
tp348
g2
(g3
g4
Ntp349
Rp350
(dp351
g8
F1.2549742980855563
sg9
F103.606976
sg10
I1
sg11
(I0
I1
tp352
sbs(I3
I12
tp353
g2
(g3
g4
Ntp354
Rp355
(dp356
g8
F1.452658577026675
sg9
F103.66072519880882
sg10
I2
sg11
(I3
I12
tp357
sbs(I1
I12
tp358
g2
(g3
g4
Ntp359
Rp360
(dp361
g8
F1.452658577026675
sg9
F103.62489239960294
sg10
I2
sg11
(I1
I12
tp362
sbs(I8
I12
tp363
g2
(g3
g4
Ntp364
Rp365
(dp366
g8
F1.452658577026675
sg9
F103.75030719682353
sg10
I2
sg11
(I8
I12
tp367
sbs(I22
I12
tp368
g2
(g3
g4
Ntp369
Rp370
(dp371
g8
F1.452658577026675
sg9
F104.0011367912647
sg10
I2
sg11
(I22
I12
tp372
sbs(I3
I1
tp373
g2
(g3
g4
Ntp374
Rp375
(dp376
g8
F1.2549742980855563
sg9
F103.66072519880882
sg10
I2
sg11
(I3
I1
tp377
sbs(I2
I11
tp378
g2
(g3
g4
Ntp379
Rp380
(dp381
g8
F1.4346872789411187
sg9
F103.64280879920588
sg10
I2
sg11
(I2
I11
tp382
sbs(I9
I9
tp383
g2
(g3
g4
Ntp384
Rp385
(dp386
g8
F1.398744682770006
sg9
F103.76822359642647
sg10
I0
sg11
(I9
I9
tp387
sbs(I23
I9
tp388
g2
(g3
g4
Ntp389
Rp390
(dp391
g8
F1.398744682770006
sg9
F104.01905319086765
sg10
I2
sg11
(I23
I9
tp392
sbs(I6
I13
tp393
g2
(g3
g4
Ntp394
Rp395
(dp396
g8
F1.470629875112231
sg9
F103.71447439761765
sg10
I2
sg11
(I6
I13
tp397
sbs(I7
I8
tp398
g2
(g3
g4
Ntp399
Rp400
(dp401
g8
F1.3807733846844499
sg9
F103.73239079722059
sg10
I0
sg11
(I7
I8
tp402
sbs(I14
I8
tp403
g2
(g3
g4
Ntp404
Rp405
(dp406
g8
F1.3807733846844499
sg9
F103.85780559444117
sg10
I0
sg11
(I14
I8
tp407
sbs(I13
I0
tp408
g2
(g3
g4
Ntp409
Rp410
(dp411
g8
F1.237003
sg9
F103.83988919483824
sg10
I1
sg11
(I13
I0
tp412
sbs(I12
I8
tp413
g2
(g3
g4
Ntp414
Rp415
(dp416
g8
F1.3807733846844499
sg9
F103.8219727952353
sg10
I0
sg11
(I12
I8
tp417
sbs(I19
I8
tp418
g2
(g3
g4
Ntp419
Rp420
(dp421
g8
F1.3807733846844499
sg9
F103.94738759245588
sg10
I1
sg11
(I19
I8
tp422
sbs(I18
I0
tp423
g2
(g3
g4
Ntp424
Rp425
(dp426
g8
F1.237003
sg9
F103.92947119285294
sg10
I2
sg11
(I18
I0
tp427
sbs(I16
I0
tp428
g2
(g3
g4
Ntp429
Rp430
(dp431
g8
F1.237003
sg9
F103.89363839364705
sg10
I2
sg11
(I16
I0
tp432
sbs(I15
I13
tp433
g2
(g3
g4
Ntp434
Rp435
(dp436
g8
F1.470629875112231
sg9
F103.87572199404411
sg10
I2
sg11
(I15
I13
tp437
sbs(I13
I13
tp438
g2
(g3
g4
Ntp439
Rp440
(dp441
g8
F1.470629875112231
sg9
F103.83988919483824
sg10
I2
sg11
(I13
I13
tp442
sbs(I20
I3
tp443
g2
(g3
g4
Ntp444
Rp445
(dp446
g8
F1.290916894256669
sg9
F103.96530399205882
sg10
I2
sg11
(I20
I3
tp447
sbs(I22
I6
tp448
g2
(g3
g4
Ntp449
Rp450
(dp451
g8
F1.3448307885133375
sg9
F104.0011367912647
sg10
I0
sg11
(I22
I6
tp452
sbs(I21
I2
tp453
g2
(g3
g4
Ntp454
Rp455
(dp456
g8
F1.2729455961711125
sg9
F103.98322039166176
sg10
I2
sg11
(I21
I2
tp457
sbs(I3
I11
tp458
g2
(g3
g4
Ntp459
Rp460
(dp461
g8
F1.4346872789411187
sg9
F103.66072519880882
sg10
I2
sg11
(I3
I11
tp462
sbs(I2
I1
tp463
g2
(g3
g4
Ntp464
Rp465
(dp466
g8
F1.2549742980855563
sg9
F103.64280879920588
sg10
I1
sg11
(I2
I1
tp467
sbs(I8
I9
tp468
g2
(g3
g4
Ntp469
Rp470
(dp471
g8
F1.398744682770006
sg9
F103.75030719682353
sg10
I0
sg11
(I8
I9
tp472
sbs(I23
I3
tp473
g2
(g3
g4
Ntp474
Rp475
(dp476
g8
F1.290916894256669
sg9
F104.01905319086765
sg10
I2
sg11
(I23
I3
tp477
sbs(I22
I9
tp478
g2
(g3
g4
Ntp479
Rp480
(dp481
g8
F1.398744682770006
sg9
F104.0011367912647
sg10
I2
sg11
(I22
I9
tp482
sbs(I4
I12
tp483
g2
(g3
g4
Ntp484
Rp485
(dp486
g8
F1.452658577026675
sg9
F103.67864159841177
sg10
I2
sg11
(I4
I12
tp487
sbs(I2
I12
tp488
g2
(g3
g4
Ntp489
Rp490
(dp491
g8
F1.452658577026675
sg9
F103.64280879920588
sg10
I2
sg11
(I2
I12
tp492
sbs(I9
I4
tp493
g2
(g3
g4
Ntp494
Rp495
(dp496
g8
F1.308888192342225
sg9
F103.76822359642647
sg10
I0
sg11
(I9
I4
tp497
sbs(I23
I12
tp498
g2
(g3
g4
Ntp499
Rp500
(dp501
g8
F1.452658577026675
sg9
F104.01905319086765
sg10
I2
sg11
(I23
I12
tp502
sbs(I5
I1
tp503
g2
(g3
g4
Ntp504
Rp505
(dp506
g8
F1.2549742980855563
sg9
F103.69655799801471
sg10
I2
sg11
(I5
I1
tp507
sbs(I10
I3
tp508
g2
(g3
g4
Ntp509
Rp510
(dp511
g8
F1.290916894256669
sg9
F103.78613999602942
sg10
I0
sg11
(I10
I3
tp512
sbs(I7
I2
tp513
g2
(g3
g4
Ntp514
Rp515
(dp516
g8
F1.2729455961711125
sg9
F103.73239079722059
sg10
I1
sg11
(I7
I2
tp517
sbs(I12
I2
tp518
g2
(g3
g4
Ntp519
Rp520
(dp521
g8
F1.2729455961711125
sg9
F103.8219727952353
sg10
I0
sg11
(I12
I2
tp522
sbs(I11
I10
tp523
g2
(g3
g4
Ntp524
Rp525
(dp526
g8
F1.4167159808555625
sg9
F103.80405639563236
sg10
I0
sg11
(I11
I10
tp527
sbs(I17
I6
tp528
g2
(g3
g4
Ntp529
Rp530
(dp531
g8
F1.3448307885133375
sg9
F103.91155479325
sg10
I0
sg11
(I17
I6
tp532
sbs(I16
I10
tp533
g2
(g3
g4
Ntp534
Rp535
(dp536
g8
F1.4167159808555625
sg9
F103.89363839364705
sg10
I1
sg11
(I16
I10
tp537
sbs(I14
I5
tp538
g2
(g3
g4
Ntp539
Rp540
(dp541
g8
F1.3268594904277813
sg9
F103.85780559444117
sg10
I0
sg11
(I14
I5
tp542
sbs(I13
I3
tp543
g2
(g3
g4
Ntp544
Rp545
(dp546
g8
F1.290916894256669
sg9
F103.83988919483824
sg10
I0
sg11
(I13
I3
tp547
sbs(I12
I13
tp548
g2
(g3
g4
Ntp549
Rp550
(dp551
g8
F1.470629875112231
sg9
F103.8219727952353
sg10
I1
sg11
(I12
I13
tp552
sbs(I19
I7
tp553
g2
(g3
g4
Ntp554
Rp555
(dp556
g8
F1.3628020865988937
sg9
F103.94738759245588
sg10
I0
sg11
(I19
I7
tp557
sbs(I18
I5
tp558
g2
(g3
g4
Ntp559
Rp560
(dp561
g8
F1.3268594904277813
sg9
F103.92947119285294
sg10
I0
sg11
(I18
I5
tp562
sbs(I16
I4
tp563
g2
(g3
g4
Ntp564
Rp565
(dp566
g8
F1.308888192342225
sg9
F103.89363839364705
sg10
I0
sg11
(I16
I4
tp567
sbs(I15
I0
tp568
g2
(g3
g4
Ntp569
Rp570
(dp571
g8
F1.237003
sg9
F103.87572199404411
sg10
I2
sg11
(I15
I0
tp572
sbs(I21
I8
tp573
g2
(g3
g4
Ntp574
Rp575
(dp576
g8
F1.3807733846844499
sg9
F103.98322039166176
sg10
I1
sg11
(I21
I8
tp577
sbs(I20
I0
tp578
g2
(g3
g4
Ntp579
Rp580
(dp581
g8
F1.237003
sg9
F103.96530399205882
sg10
I2
sg11
(I20
I0
tp582
sbs(I1
I5
tp583
g2
(g3
g4
Ntp584
Rp585
(dp586
g8
F1.3268594904277813
sg9
F103.62489239960294
sg10
I1
sg11
(I1
I5
tp587
sbs(I0
I11
tp588
g2
(g3
g4
Ntp589
Rp590
(dp591
g8
F1.4346872789411187
sg9
F103.606976
sg10
I2
sg11
(I0
I11
tp592
sbs(I22
I7
tp593
g2
(g3
g4
Ntp594
Rp595
(dp596
g8
F1.3628020865988937
sg9
F104.0011367912647
sg10
I1
sg11
(I22
I7
tp597
sbs(I21
I5
tp598
g2
(g3
g4
Ntp599
Rp600
(dp601
g8
F1.3268594904277813
sg9
F103.98322039166176
sg10
I0
sg11
(I21
I5
tp602
sbs(I3
I6
tp603
g2
(g3
g4
Ntp604
Rp605
(dp606
g8
F1.3448307885133375
sg9
F103.66072519880882
sg10
I0
sg11
(I3
I6
tp607
sbs(I2
I2
tp608
g2
(g3
g4
Ntp609
Rp610
(dp611
g8
F1.2729455961711125
sg9
F103.64280879920588
sg10
I1
sg11
(I2
I2
tp612
sbs(I1
I10
tp613
g2
(g3
g4
Ntp614
Rp615
(dp616
g8
F1.4167159808555625
sg9
F103.62489239960294
sg10
I2
sg11
(I1
I10
tp617
sbs(I8
I6
tp618
g2
(g3
g4
Ntp619
Rp620
(dp621
g8
F1.3448307885133375
sg9
F103.75030719682353
sg10
I0
sg11
(I8
I6
tp622
sbs(I23
I6
tp623
g2
(g3
g4
Ntp624
Rp625
(dp626
g8
F1.3448307885133375
sg9
F104.01905319086765
sg10
I1
sg11
(I23
I6
tp627
sbs(I22
I10
tp628
g2
(g3
g4
Ntp629
Rp630
(dp631
g8
F1.4167159808555625
sg9
F104.0011367912647
sg10
I2
sg11
(I22
I10
tp632
sbs(I4
I1
tp633
g2
(g3
g4
Ntp634
Rp635
(dp636
g8
F1.2549742980855563
sg9
F103.67864159841177
sg10
I2
sg11
(I4
I1
tp637
sbs(I10
I9
tp638
g2
(g3
g4
Ntp639
Rp640
(dp641
g8
F1.398744682770006
sg9
F103.78613999602942
sg10
I0
sg11
(I10
I9
tp642
sbs(I9
I7
tp643
g2
(g3
g4
Ntp644
Rp645
(dp646
g8
F1.3628020865988937
sg9
F103.76822359642647
sg10
I0
sg11
(I9
I7
tp647
sbs(I6
I4
tp648
g2
(g3
g4
Ntp649
Rp650
(dp651
g8
F1.308888192342225
sg9
F103.71447439761765
sg10
I0
sg11
(I6
I4
tp652
sbs(I5
I4
tp653
g2
(g3
g4
Ntp654
Rp655
(dp656
g8
F1.308888192342225
sg9
F103.69655799801471
sg10
I0
sg11
(I5
I4
tp657
sbs(I11
I4
tp658
g2
(g3
g4
Ntp659
Rp660
(dp661
g8
F1.308888192342225
sg9
F103.80405639563236
sg10
I0
sg11
(I11
I4
tp662
sbs(I10
I4
tp663
g2
(g3
g4
Ntp664
Rp665
(dp666
g8
F1.308888192342225
sg9
F103.78613999602942
sg10
I0
sg11
(I10
I4
tp667
sbs(I7
I1
tp668
g2
(g3
g4
Ntp669
Rp670
(dp671
g8
F1.2549742980855563
sg9
F103.73239079722059
sg10
I2
sg11
(I7
I1
tp672
sbs(I6
I11
tp673
g2
(g3
g4
Ntp674
Rp675
(dp676
g8
F1.4346872789411187
sg9
F103.71447439761765
sg10
I1
sg11
(I6
I11
tp677
sbs(I12
I7
tp678
g2
(g3
g4
Ntp679
Rp680
(dp681
g8
F1.3628020865988937
sg9
F103.8219727952353
sg10
I0
sg11
(I12
I7
tp682
sbs(I11
I9
tp683
g2
(g3
g4
Ntp684
Rp685
(dp686
g8
F1.398744682770006
sg9
F103.80405639563236
sg10
I0
sg11
(I11
I9
tp687
sbs(I17
I1
tp688
g2
(g3
g4
Ntp689
Rp690
(dp691
g8
F1.2549742980855563
sg9
F103.91155479325
sg10
I2
sg11
(I17
I1
tp692
sbs(I15
I10
tp693
g2
(g3
g4
Ntp694
Rp695
(dp696
g8
F1.4167159808555625
sg9
F103.87572199404411
sg10
I1
sg11
(I15
I10
tp697
sbs(I14
I6
tp698
g2
(g3
g4
Ntp699
Rp700
(dp701
g8
F1.3448307885133375
sg9
F103.85780559444117
sg10
I0
sg11
(I14
I6
tp702
sbs(I13
I6
tp703
g2
(g3
g4
Ntp704
Rp705
(dp706
g8
F1.3448307885133375
sg9
F103.83988919483824
sg10
I0
sg11
(I13
I6
tp707
sbs(I20
I10
tp708
g2
(g3
g4
Ntp709
Rp710
(dp711
g8
F1.4167159808555625
sg9
F103.96530399205882
sg10
I2
sg11
(I20
I10
tp712
sbs(I19
I2
tp713
g2
(g3
g4
Ntp714
Rp715
(dp716
g8
F1.2729455961711125
sg9
F103.94738759245588
sg10
I2
sg11
(I19
I2
tp717
sbs(I18
I6
tp718
g2
(g3
g4
Ntp719
Rp720
(dp721
g8
F1.3448307885133375
sg9
F103.92947119285294
sg10
I0
sg11
(I18
I6
tp722
sbs(I0
I5
tp723
g2
(g3
g4
Ntp724
Rp725
(dp726
g8
F1.3268594904277813
sg9
F103.606976
sg10
I2
sg11
(I0
I5
tp727
sbs(I15
I7
tp728
g2
(g3
g4
Ntp729
Rp730
(dp731
g8
F1.3628020865988937
sg9
F103.87572199404411
sg10
I0
sg11
(I15
I7
tp732
sbs(I21
I11
tp733
g2
(g3
g4
Ntp734
Rp735
(dp736
g8
F1.4346872789411187
sg9
F103.98322039166176
sg10
I2
sg11
(I21
I11
tp737
sbs(I20
I5
tp738
g2
(g3
g4
Ntp739
Rp740
(dp741
g8
F1.3268594904277813
sg9
F103.96530399205882
sg10
I0
sg11
(I20
I5
tp742
sbs(I1
I0
tp743
g2
(g3
g4
Ntp744
Rp745
(dp746
g8
F1.237003
sg9
F103.62489239960294
sg10
I2
sg11
(I1
I0
tp747
sbs(I0
I8
tp748
g2
(g3
g4
Ntp749
Rp750
(dp751
g8
F1.3807733846844499
sg9
F103.606976
sg10
I2
sg11
(I0
I8
tp752
sbs(I22
I0
tp753
g2
(g3
g4
Ntp754
Rp755
(dp756
g8
F1.237003
sg9
F104.0011367912647
sg10
I2
sg11
(I22
I0
tp757
sbs(I4
I11
tp758
g2
(g3
g4
Ntp759
Rp760
(dp761
g8
F1.4346872789411187
sg9
F103.67864159841177
sg10
I1
sg11
(I4
I11
tp762
sbs(I3
I5
tp763
g2
(g3
g4
Ntp764
Rp765
(dp766
g8
F1.3268594904277813
sg9
F103.66072519880882
sg10
I0
sg11
(I3
I5
tp767
sbs(I2
I7
tp768
g2
(g3
g4
Ntp769
Rp770
(dp771
g8
F1.3628020865988937
sg9
F103.64280879920588
sg10
I1
sg11
(I2
I7
tp772
sbs(I9
I13
tp773
g2
(g3
g4
Ntp774
Rp775
(dp776
g8
F1.470629875112231
sg9
F103.76822359642647
sg10
I2
sg11
(I9
I13
tp777
sbs(I8
I3
tp778
g2
(g3
g4
Ntp779
Rp780
(dp781
g8
F1.290916894256669
sg9
F103.75030719682353
sg10
I0
sg11
(I8
I3
tp782
sbs(I23
I5
tp783
g2
(g3
g4
Ntp784
Rp785
(dp786
g8
F1.3268594904277813
sg9
F104.01905319086765
sg10
I1
sg11
(I23
I5
tp787
sbs(I5
I10
tp788
g2
(g3
g4
Ntp789
Rp790
(dp791
g8
F1.4167159808555625
sg9
F103.69655799801471
sg10
I0
sg11
(I5
I10
tp792
sbs(I4
I6
tp793
g2
(g3
g4
Ntp794
Rp795
(dp796
g8
F1.3448307885133375
sg9
F103.67864159841177
sg10
I0
sg11
(I4
I6
tp797
sbs(I10
I10
tp798
g2
(g3
g4
Ntp799
Rp800
(dp801
g8
F1.4167159808555625
sg9
F103.78613999602942
sg10
I0
sg11
(I10
I10
tp802
sbs(I9
I2
tp803
g2
(g3
g4
Ntp804
Rp805
(dp806
g8
F1.2729455961711125
sg9
F103.76822359642647
sg10
I0
sg11
(I9
I2
tp807
sbs(I16
I13
tp808
g2
(g3
g4
Ntp809
Rp810
(dp811
g8
F1.470629875112231
sg9
F103.89363839364705
sg10
I2
sg11
(I16
I13
tp812
sbs(I6
I1
tp813
g2
(g3
g4
Ntp814
Rp815
(dp816
g8
F1.2549742980855563
sg9
F103.71447439761765
sg10
I2
sg11
(I6
I1
tp817
sbs(I5
I7
tp818
g2
(g3
g4
Ntp819
Rp820
(dp821
g8
F1.3628020865988937
sg9
F103.69655799801471
sg10
I0
sg11
(I5
I7
tp822
sbs(I11
I3
tp823
g2
(g3
g4
Ntp824
Rp825
(dp826
g8
F1.290916894256669
sg9
F103.80405639563236
sg10
I0
sg11
(I11
I3
tp827
sbs(I7
I4
tp828
g2
(g3
g4
Ntp829
Rp830
(dp831
g8
F1.308888192342225
sg9
F103.73239079722059
sg10
I0
sg11
(I7
I4
tp832
sbs(I14
I12
tp833
g2
(g3
g4
Ntp834
Rp835
(dp836
g8
F1.452658577026675
sg9
F103.85780559444117
sg10
I1
sg11
(I14
I12
tp837
sbs(I12
I4
tp838
g2
(g3
g4
Ntp839
Rp840
(dp841
g8
F1.308888192342225
sg9
F103.8219727952353
sg10
I0
sg11
(I12
I4
tp842
sbs(I19
I12
tp843
g2
(g3
g4
Ntp844
Rp845
(dp846
g8
F1.452658577026675
sg9
F103.94738759245588
sg10
I2
sg11
(I19
I12
tp847
sbs(I17
I12
tp848
g2
(g3
g4
Ntp849
Rp850
(dp851
g8
F1.452658577026675
sg9
F103.91155479325
sg10
I2
sg11
(I17
I12
tp852
sbs(I15
I9
tp853
g2
(g3
g4
Ntp854
Rp855
(dp856
g8
F1.398744682770006
sg9
F103.87572199404411
sg10
I0
sg11
(I15
I9
tp857
sbs(I14
I3
tp858
g2
(g3
g4
Ntp859
Rp860
(dp861
g8
F1.290916894256669
sg9
F103.85780559444117
sg10
I0
sg11
(I14
I3
tp862
sbs(I13
I9
tp863
g2
(g3
g4
Ntp864
Rp865
(dp866
g8
F1.398744682770006
sg9
F103.83988919483824
sg10
I0
sg11
(I13
I9
tp867
sbs(I19
I1
tp868
g2
(g3
g4
Ntp869
Rp870
(dp871
g8
F1.2549742980855563
sg9
F103.94738759245588
sg10
I2
sg11
(I19
I1
tp872
sbs(I18
I11
tp873
g2
(g3
g4
Ntp874
Rp875
(dp876
g8
F1.4346872789411187
sg9
F103.92947119285294
sg10
I2
sg11
(I18
I11
tp877
sbs(I0
I2
tp878
g2
(g3
g4
Ntp879
Rp880
(dp881
g8
F1.2729455961711125
sg9
F103.606976
sg10
I1
sg11
(I0
I2
tp882
sbs(I1
I3
tp883
g2
(g3
g4
Ntp884
Rp885
(dp886
g8
F1.290916894256669
sg9
F103.62489239960294
sg10
I0
sg11
(I1
I3
tp887
sbs(I8
I13
tp888
g2
(g3
g4
Ntp889
Rp890
(dp891
g8
F1.470629875112231
sg9
F103.75030719682353
sg10
I2
sg11
(I8
I13
tp892
sbs(I22
I13
tp893
g2
(g3
g4
Ntp894
Rp895
(dp896
g8
F1.470629875112231
sg9
F104.0011367912647
sg10
I2
sg11
(I22
I13
tp897
sbs(I4
I8
tp898
g2
(g3
g4
Ntp899
Rp900
(dp901
g8
F1.3807733846844499
sg9
F103.67864159841177
sg10
I0
sg11
(I4
I8
tp902
sbs(I3
I0
tp903
g2
(g3
g4
Ntp904
Rp905
(dp906
g8
F1.237003
sg9
F103.66072519880882
sg10
I2
sg11
(I3
I0
tp907
sbs(I2
I8
tp908
g2
(g3
g4
Ntp909
Rp910
(dp911
g8
F1.3807733846844499
sg9
F103.64280879920588
sg10
I1
sg11
(I2
I8
tp912
sbs(I9
I8
tp913
g2
(g3
g4
Ntp914
Rp915
(dp916
g8
F1.3807733846844499
sg9
F103.76822359642647
sg10
I0
sg11
(I9
I8
tp917
sbs(I8
I0
tp918
g2
(g3
g4
Ntp919
Rp920
(dp921
g8
F1.237003
sg9
F103.75030719682353
sg10
I2
sg11
(I8
I0
tp922
sbs(I23
I8
tp923
g2
(g3
g4
Ntp924
Rp925
(dp926
g8
F1.3807733846844499
sg9
F104.01905319086765
sg10
I2
sg11
(I23
I8
tp927
sbs(I5
I13
tp928
g2
(g3
g4
Ntp929
Rp930
(dp931
g8
F1.470629875112231
sg9
F103.69655799801471
sg10
I2
sg11
(I5
I13
tp932
sbs(I6
I2
tp933
g2
(g3
g4
Ntp934
Rp935
(dp936
g8
F1.2729455961711125
sg9
F103.71447439761765
sg10
I1
sg11
(I6
I2
tp937
sbs(I7
I11
tp938
g2
(g3
g4
Ntp939
Rp940
(dp941
g8
F1.4346872789411187
sg9
F103.73239079722059
sg10
I1
sg11
(I7
I11
tp942
sbs(I14
I9
tp943
g2
(g3
g4
Ntp944
Rp945
(dp946
g8
F1.398744682770006
sg9
F103.85780559444117
sg10
I0
sg11
(I14
I9
tp947
sbs(I12
I9
tp948
g2
(g3
g4
Ntp949
Rp950
(dp951
g8
F1.398744682770006
sg9
F103.8219727952353
sg10
I0
sg11
(I12
I9
tp952
sbs(I19
I11
tp953
g2
(g3
g4
Ntp954
Rp955
(dp956
g8
F1.4346872789411187
sg9
F103.94738759245588
sg10
I2
sg11
(I19
I11
tp957
sbs(I18
I1
tp958
g2
(g3
g4
Ntp959
Rp960
(dp961
g8
F1.2549742980855563
sg9
F103.92947119285294
sg10
I2
sg11
(I18
I1
tp962
sbs(I15
I12
tp963
g2
(g3
g4
Ntp964
Rp965
(dp966
g8
F1.452658577026675
sg9
F103.87572199404411
sg10
I2
sg11
(I15
I12
tp967
sbs(I13
I12
tp968
g2
(g3
g4
Ntp969
Rp970
(dp971
g8
F1.452658577026675
sg9
F103.83988919483824
sg10
I1
sg11
(I13
I12
tp972
sbs(I20
I12
tp973
g2
(g3
g4
Ntp974
Rp975
(dp976
g8
F1.452658577026675
sg9
F103.96530399205882
sg10
I2
sg11
(I20
I12
tp977
sbs(I18
I12
tp978
g2
(g3
g4
Ntp979
Rp980
(dp981
g8
F1.452658577026675
sg9
F103.92947119285294
sg10
I2
sg11
(I18
I12
tp982
sbs(I21
I1
tp983
g2
(g3
g4
Ntp984
Rp985
(dp986
g8
F1.2549742980855563
sg9
F103.98322039166176
sg10
I2
sg11
(I21
I1
tp987
sbs(I3
I10
tp988
g2
(g3
g4
Ntp989
Rp990
(dp991
g8
F1.4167159808555625
sg9
F103.66072519880882
sg10
I1
sg11
(I3
I10
tp992
sbs(I16
I8
tp993
g2
(g3
g4
Ntp994
Rp995
(dp996
g8
F1.3807733846844499
sg9
F103.89363839364705
sg10
I0
sg11
(I16
I8
tp997
sbs(I8
I10
tp998
g2
(g3
g4
Ntp999
Rp1000
(dp1001
g8
F1.4167159808555625
sg9
F103.75030719682353
sg10
I0
sg11
(I8
I10
tp1002
sbs(I23
I2
tp1003
g2
(g3
g4
Ntp1004
Rp1005
(dp1006
g8
F1.2729455961711125
sg9
F104.01905319086765
sg10
I2
sg11
(I23
I2
tp1007
sbs(I4
I13
tp1008
g2
(g3
g4
Ntp1009
Rp1010
(dp1011
g8
F1.470629875112231
sg9
F103.67864159841177
sg10
I2
sg11
(I4
I13
tp1012
sbs(I2
I13
tp1013
g2
(g3
g4
Ntp1014
Rp1015
(dp1016
g8
F1.470629875112231
sg9
F103.64280879920588
sg10
I2
sg11
(I2
I13
tp1017
sbs(I9
I11
tp1018
g2
(g3
g4
Ntp1019
Rp1020
(dp1021
g8
F1.4346872789411187
sg9
F103.76822359642647
sg10
I1
sg11
(I9
I11
tp1022
sbs(I5
I0
tp1023
g2
(g3
g4
Ntp1024
Rp1025
(dp1026
g8
F1.237003
sg9
F103.69655799801471
sg10
I2
sg11
(I5
I0
tp1027
sbs(I17
I7
tp1028
g2
(g3
g4
Ntp1029
Rp1030
(dp1031
g8
F1.3628020865988937
sg9
F103.91155479325
sg10
I0
sg11
(I17
I7
tp1032
sbs(I10
I0
tp1033
g2
(g3
g4
Ntp1034
Rp1035
(dp1036
g8
F1.237003
sg9
F103.78613999602942
sg10
I2
sg11
(I10
I0
tp1037
sbs(I16
I12
tp1038
g2
(g3
g4
Ntp1039
Rp1040
(dp1041
g8
F1.452658577026675
sg9
F103.89363839364705
sg10
I2
sg11
(I16
I12
tp1042
sbs(I16
I9
tp1043
g2
(g3
g4
Ntp1044
Rp1045
(dp1046
g8
F1.398744682770006
sg9
F103.89363839364705
sg10
I0
sg11
(I16
I9
tp1047
sbs(I12
I3
tp1048
g2
(g3
g4
Ntp1049
Rp1050
(dp1051
g8
F1.290916894256669
sg9
F103.8219727952353
sg10
I0
sg11
(I12
I3
tp1052
sbs(I11
I13
tp1053
g2
(g3
g4
Ntp1054
Rp1055
(dp1056
g8
F1.470629875112231
sg9
F103.80405639563236
sg10
I1
sg11
(I11
I13
tp1057
sbs(I17
I5
tp1058
g2
(g3
g4
Ntp1059
Rp1060
(dp1061
g8
F1.3268594904277813
sg9
F103.91155479325
sg10
I0
sg11
(I17
I5
tp1062
sbs(I16
I11
tp1063
g2
(g3
g4
Ntp1064
Rp1065
(dp1066
g8
F1.4346872789411187
sg9
F103.89363839364705
sg10
I2
sg11
(I16
I11
tp1067
sbs(I14
I10
tp1068
g2
(g3
g4
Ntp1069
Rp1070
(dp1071
g8
F1.4167159808555625
sg9
F103.85780559444117
sg10
I0
sg11
(I14
I10
tp1072
sbs(I13
I2
tp1073
g2
(g3
g4
Ntp1074
Rp1075
(dp1076
g8
F1.2729455961711125
sg9
F103.83988919483824
sg10
I0
sg11
(I13
I2
tp1077
sbs(I19
I6
tp1078
g2
(g3
g4
Ntp1079
Rp1080
(dp1081
g8
F1.3448307885133375
sg9
F103.94738759245588
sg10
I0
sg11
(I19
I6
tp1082
sbs(I18
I2
tp1083
g2
(g3
g4
Ntp1084
Rp1085
(dp1086
g8
F1.2729455961711125
sg9
F103.92947119285294
sg10
I2
sg11
(I18
I2
tp1087
sbs(I17
I10
tp1088
g2
(g3
g4
Ntp1089
Rp1090
(dp1091
g8
F1.4167159808555625
sg9
F103.91155479325
sg10
I1
sg11
(I17
I10
tp1092
sbs(I15
I3
tp1093
g2
(g3
g4
Ntp1094
Rp1095
(dp1096
g8
F1.290916894256669
sg9
F103.87572199404411
sg10
I1
sg11
(I15
I3
tp1097
sbs(I17
I8
tp1098
g2
(g3
g4
Ntp1099
Rp1100
(dp1101
g8
F1.3807733846844499
sg9
F103.91155479325
sg10
I0
sg11
(I17
I8
tp1102
sbs(I1
I4
tp1103
g2
(g3
g4
Ntp1104
Rp1105
(dp1106
g8
F1.308888192342225
sg9
F103.62489239960294
sg10
I1
sg11
(I1
I4
tp1107
sbs(I0
I12
tp1108
g2
(g3
g4
Ntp1109
Rp1110
(dp1111
g8
F1.452658577026675
sg9
F103.606976
sg10
I2
sg11
(I0
I12
tp1112
sbs(I22
I4
tp1113
g2
(g3
g4
Ntp1114
Rp1115
(dp1116
g8
F1.308888192342225
sg9
F104.0011367912647
sg10
I1
sg11
(I22
I4
tp1117
sbs(I21
I4
tp1118
g2
(g3
g4
Ntp1119
Rp1120
(dp1121
g8
F1.308888192342225
sg9
F103.98322039166176
sg10
I1
sg11
(I21
I4
tp1122
sbs(I3
I9
tp1123
g2
(g3
g4
Ntp1124
Rp1125
(dp1126
g8
F1.398744682770006
sg9
F103.66072519880882
sg10
I1
sg11
(I3
I9
tp1127
sbs(I2
I3
tp1128
g2
(g3
g4
Ntp1129
Rp1130
(dp1131
g8
F1.290916894256669
sg9
F103.64280879920588
sg10
I0
sg11
(I2
I3
tp1132
sbs(I1
I9
tp1133
g2
(g3
g4
Ntp1134
Rp1135
(dp1136
g8
F1.398744682770006
sg9
F103.62489239960294
sg10
I2
sg11
(I1
I9
tp1137
sbs(I8
I7
tp1138
g2
(g3
g4
Ntp1139
Rp1140
(dp1141
g8
F1.3628020865988937
sg9
F103.75030719682353
sg10
I0
sg11
(I8
I7
tp1142
sbs(I23
I1
tp1143
g2
(g3
g4
Ntp1144
Rp1145
(dp1146
g8
F1.2549742980855563
sg9
F104.01905319086765
sg10
I2
sg11
(I23
I1
tp1147
sbs(I22
I11
tp1148
g2
(g3
g4
Ntp1149
Rp1150
(dp1151
g8
F1.4346872789411187
sg9
F104.0011367912647
sg10
I2
sg11
(I22
I11
tp1152
sbs(I4
I2
tp1153
g2
(g3
g4
Ntp1154
Rp1155
(dp1156
g8
F1.2729455961711125
sg9
F103.67864159841177
sg10
I2
sg11
(I4
I2
tp1157
sbs(I9
I6
tp1158
g2
(g3
g4
Ntp1159
Rp1160
(dp1161
g8
F1.3448307885133375
sg9
F103.76822359642647
sg10
I0
sg11
(I9
I6
tp1162
sbs(I6
I5
tp1163
g2
(g3
g4
Ntp1164
Rp1165
(dp1166
g8
F1.3268594904277813
sg9
F103.71447439761765
sg10
I0
sg11
(I6
I5
tp1167
sbs(I5
I3
tp1168
g2
(g3
g4
Ntp1169
Rp1170
(dp1171
g8
F1.290916894256669
sg9
F103.69655799801471
sg10
I1
sg11
(I5
I3
tp1172
sbs(I11
I7
tp1173
g2
(g3
g4
Ntp1174
Rp1175
(dp1176
g8
F1.3628020865988937
sg9
F103.80405639563236
sg10
I0
sg11
(I11
I7
tp1177
sbs(I10
I5
tp1178
g2
(g3
g4
Ntp1179
Rp1180
(dp1181
g8
F1.3268594904277813
sg9
F103.78613999602942
sg10
I0
sg11
(I10
I5
tp1182
sbs(I7
I0
tp1183
g2
(g3
g4
Ntp1184
Rp1185
(dp1186
g8
F1.237003
sg9
F103.73239079722059
sg10
I2
sg11
(I7
I0
tp1187
sbs(I6
I8
tp1188
g2
(g3
g4
Ntp1189
Rp1190
(dp1191
g8
F1.3807733846844499
sg9
F103.71447439761765
sg10
I0
sg11
(I6
I8
tp1192
sbs(I12
I0
tp1193
g2
(g3
g4
Ntp1194
Rp1195
(dp1196
g8
F1.237003
sg9
F103.8219727952353
sg10
I1
sg11
(I12
I0
tp1197
sbs(I11
I8
tp1198
g2
(g3
g4
Ntp1199
Rp1200
(dp1201
g8
F1.3807733846844499
sg9
F103.80405639563236
sg10
I0
sg11
(I11
I8
tp1202
sbs(I17
I0
tp1203
g2
(g3
g4
Ntp1204
Rp1205
(dp1206
g8
F1.237003
sg9
F103.91155479325
sg10
I2
sg11
(I17
I0
tp1207
sbs(I7
I13
tp1208
g2
(g3
g4
Ntp1209
Rp1210
(dp1211
g8
F1.470629875112231
sg9
F103.73239079722059
sg10
I2
sg11
(I7
I13
tp1212
sbs(I14
I7
tp1213
g2
(g3
g4
Ntp1214
Rp1215
(dp1216
g8
F1.3628020865988937
sg9
F103.85780559444117
sg10
I0
sg11
(I14
I7
tp1217
sbs(I13
I5
tp1218
g2
(g3
g4
Ntp1219
Rp1220
(dp1221
g8
F1.3268594904277813
sg9
F103.83988919483824
sg10
I0
sg11
(I13
I5
tp1222
sbs(I20
I11
tp1223
g2
(g3
g4
Ntp1224
Rp1225
(dp1226
g8
F1.4346872789411187
sg9
F103.96530399205882
sg10
I2
sg11
(I20
I11
tp1227
sbs(I19
I5
tp1228
g2
(g3
g4
Ntp1229
Rp1230
(dp1231
g8
F1.3268594904277813
sg9
F103.94738759245588
sg10
I0
sg11
(I19
I5
tp1232
sbs(I18
I7
tp1233
g2
(g3
g4
Ntp1234
Rp1235
(dp1236
g8
F1.3628020865988937
sg9
F103.92947119285294
sg10
I0
sg11
(I18
I7
tp1237
sbs(I0
I6
tp1238
g2
(g3
g4
Ntp1239
Rp1240
(dp1241
g8
F1.3448307885133375
sg9
F103.606976
sg10
I2
sg11
(I0
I6
tp1242
sbs(I15
I6
tp1243
g2
(g3
g4
Ntp1244
Rp1245
(dp1246
g8
F1.3448307885133375
sg9
F103.87572199404411
sg10
I0
sg11
(I15
I6
tp1247
sbs(I21
I10
tp1248
g2
(g3
g4
Ntp1249
Rp1250
(dp1251
g8
F1.4167159808555625
sg9
F103.98322039166176
sg10
I2
sg11
(I21
I10
tp1252
sbs(I20
I6
tp1253
g2
(g3
g4
Ntp1254
Rp1255
(dp1256
g8
F1.3448307885133375
sg9
F103.96530399205882
sg10
I0
sg11
(I20
I6
tp1257
sbs(I1
I7
tp1258
g2
(g3
g4
Ntp1259
Rp1260
(dp1261
g8
F1.3628020865988937
sg9
F103.62489239960294
sg10
I2
sg11
(I1
I7
tp1262
sbs(I0
I9
tp1263
g2
(g3
g4
Ntp1264
Rp1265
(dp1266
g8
F1.398744682770006
sg9
F103.606976
sg10
I2
sg11
(I0
I9
tp1267
sbs(I22
I1
tp1268
g2
(g3
g4
Ntp1269
Rp1270
(dp1271
g8
F1.2549742980855563
sg9
F104.0011367912647
sg10
I2
sg11
(I22
I1
tp1272
sbs(I21
I7
tp1273
g2
(g3
g4
Ntp1274
Rp1275
(dp1276
g8
F1.3628020865988937
sg9
F103.98322039166176
sg10
I0
sg11
(I21
I7
tp1277
sbs(I3
I4
tp1278
g2
(g3
g4
Ntp1279
Rp1280
(dp1281
g8
F1.308888192342225
sg9
F103.66072519880882
sg10
I0
sg11
(I3
I4
tp1282
sbs(I2
I4
tp1283
g2
(g3
g4
Ntp1284
Rp1285
(dp1286
g8
F1.308888192342225
sg9
F103.64280879920588
sg10
I0
sg11
(I2
I4
tp1287
sbs(I9
I12
tp1288
g2
(g3
g4
Ntp1289
Rp1290
(dp1291
g8
F1.452658577026675
sg9
F103.76822359642647
sg10
I1
sg11
(I9
I12
tp1292
sbs(I8
I4
tp1293
g2
(g3
g4
Ntp1294
Rp1295
(dp1296
g8
F1.308888192342225
sg9
F103.75030719682353
sg10
I0
sg11
(I8
I4
tp1297
sbs(I23
I4
tp1298
g2
(g3
g4
Ntp1299
Rp1300
(dp1301
g8
F1.308888192342225
sg9
F104.01905319086765
sg10
I1
sg11
(I23
I4
tp1302
sbs(I5
I9
tp1303
g2
(g3
g4
Ntp1304
Rp1305
(dp1306
g8
F1.398744682770006
sg9
F103.69655799801471
sg10
I0
sg11
(I5
I9
tp1307
sbs(I4
I7
tp1308
g2
(g3
g4
Ntp1309
Rp1310
(dp1311
g8
F1.3628020865988937
sg9
F103.67864159841177
sg10
I0
sg11
(I4
I7
tp1312
sbs(I10
I11
tp1313
g2
(g3
g4
Ntp1314
Rp1315
(dp1316
g8
F1.4346872789411187
sg9
F103.78613999602942
sg10
I0
sg11
(I10
I11
tp1317
sbs(I9
I1
tp1318
g2
(g3
g4
Ntp1319
Rp1320
(dp1321
g8
F1.2549742980855563
sg9
F103.76822359642647
sg10
I1
sg11
(I9
I1
tp1322
sbs(I6
I6
tp1323
g2
(g3
g4
Ntp1324
Rp1325
(dp1326
g8
F1.3448307885133375
sg9
F103.71447439761765
sg10
I0
sg11
(I6
I6
tp1327
sbs(I5
I6
tp1328
g2
(g3
g4
Ntp1329
Rp1330
(dp1331
g8
F1.3448307885133375
sg9
F103.69655799801471
sg10
I0
sg11
(I5
I6
tp1332
sbs(I11
I2
tp1333
g2
(g3
g4
Ntp1334
Rp1335
(dp1336
g8
F1.2729455961711125
sg9
F103.80405639563236
sg10
I0
sg11
(I11
I2
tp1337
sbs(I10
I6
tp1338
g2
(g3
g4
Ntp1339
Rp1340
(dp1341
g8
F1.3448307885133375
sg9
F103.78613999602942
sg10
I0
sg11
(I10
I6
tp1342
sbs(I7
I7
tp1343
g2
(g3
g4
Ntp1344
Rp1345
(dp1346
g8
F1.3628020865988937
sg9
F103.73239079722059
sg10
I0
sg11
(I7
I7
tp1347
sbs(I14
I13
tp1348
g2
(g3
g4
Ntp1349
Rp1350
(dp1351
g8
F1.470629875112231
sg9
F103.85780559444117
sg10
I2
sg11
(I14
I13
tp1352
sbs(I12
I5
tp1353
g2
(g3
g4
Ntp1354
Rp1355
(dp1356
g8
F1.3268594904277813
sg9
F103.8219727952353
sg10
I0
sg11
(I12
I5
tp1357
sbs(I19
I0
tp1358
g2
(g3
g4
Ntp1359
Rp1360
(dp1361
g8
F1.237003
sg9
F103.94738759245588
sg10
I2
sg11
(I19
I0
tp1362
sbs(I17
I3
tp1363
g2
(g3
g4
Ntp1364
Rp1365
(dp1366
g8
F1.290916894256669
sg9
F103.91155479325
sg10
I1
sg11
(I17
I3
tp1367
sbs(I15
I8
tp1368
g2
(g3
g4
Ntp1369
Rp1370
(dp1371
g8
F1.3807733846844499
sg9
F103.87572199404411
sg10
I0
sg11
(I15
I8
tp1372
sbs(I14
I0
tp1373
g2
(g3
g4
Ntp1374
Rp1375
(dp1376
g8
F1.237003
sg9
F103.85780559444117
sg10
I2
sg11
(I14
I0
tp1377
sbs(I13
I8
tp1378
g2
(g3
g4
Ntp1379
Rp1380
(dp1381
g8
F1.3807733846844499
sg9
F103.83988919483824
sg10
I0
sg11
(I13
I8
tp1382
sbs(I20
I8
tp1383
g2
(g3
g4
Ntp1384
Rp1385
(dp1386
g8
F1.3807733846844499
sg9
F103.96530399205882
sg10
I1
sg11
(I20
I8
tp1387
sbs(I16
I2
tp1388
g2
(g3
g4
Ntp1389
Rp1390
(dp1391
g8
F1.2729455961711125
sg9
F103.89363839364705
sg10
I2
sg11
(I16
I2
tp1392
sbs(I18
I8
tp1393
g2
(g3
g4
Ntp1394
Rp1395
(dp1396
g8
F1.3807733846844499
sg9
F103.92947119285294
sg10
I1
sg11
(I18
I8
tp1397
sbs(I0
I3
tp1398
g2
(g3
g4
Ntp1399
Rp1400
(dp1401
g8
F1.290916894256669
sg9
F103.606976
sg10
I1
sg11
(I0
I3
tp1402
sbs(I15
I5
tp1403
g2
(g3
g4
Ntp1404
Rp1405
(dp1406
g8
F1.3268594904277813
sg9
F103.87572199404411
sg10
I0
sg11
(I15
I5
tp1407
sbs(I21
I13
tp1408
g2
(g3
g4
Ntp1409
Rp1410
(dp1411
g8
F1.470629875112231
sg9
F103.98322039166176
sg10
I2
sg11
(I21
I13
tp1412
sbs(I1
I2
tp1413
g2
(g3
g4
Ntp1414
Rp1415
(dp1416
g8
F1.2729455961711125
sg9
F103.62489239960294
sg10
I0
sg11
(I1
I2
tp1417
sbs(I16
I1
tp1418
g2
(g3
g4
Ntp1419
Rp1420
(dp1421
g8
F1.2549742980855563
sg9
F103.89363839364705
sg10
I2
sg11
(I16
I1
tp1422
sbs(I22
I2
tp1423
g2
(g3
g4
Ntp1424
Rp1425
(dp1426
g8
F1.2729455961711125
sg9
F104.0011367912647
sg10
I2
sg11
(I22
I2
tp1427
sbs(I4
I9
tp1428
g2
(g3
g4
Ntp1429
Rp1430
(dp1431
g8
F1.398744682770006
sg9
F103.67864159841177
sg10
I0
sg11
(I4
I9
tp1432
sbs(I3
I3
tp1433
g2
(g3
g4
Ntp1434
Rp1435
(dp1436
g8
F1.290916894256669
sg9
F103.66072519880882
sg10
I1
sg11
(I3
I3
tp1437
sbs(I2
I9
tp1438
g2
(g3
g4
Ntp1439
Rp1440
(dp1441
g8
F1.398744682770006
sg9
F103.64280879920588
sg10
I2
sg11
(I2
I9
tp1442
sbs(I8
I1
tp1443
g2
(g3
g4
Ntp1444
Rp1445
(dp1446
g8
F1.2549742980855563
sg9
F103.75030719682353
sg10
I1
sg11
(I8
I1
tp1447
sbs(I23
I11
tp1448
g2
(g3
g4
Ntp1449
Rp1450
(dp1451
g8
F1.4346872789411187
sg9
F104.01905319086765
sg10
I2
sg11
(I23
I11
tp1452
sbs(I5
I12
tp1453
g2
(g3
g4
Ntp1454
Rp1455
(dp1456
g8
F1.452658577026675
sg9
F103.69655799801471
sg10
I2
sg11
(I5
I12
tp1457
sbs(I4
I4
tp1458
g2
(g3
g4
Ntp1459
Rp1460
(dp1461
g8
F1.308888192342225
sg9
F103.67864159841177
sg10
I0
sg11
(I4
I4
tp1462
sbs(I10
I12
tp1463
g2
(g3
g4
Ntp1464
Rp1465
(dp1466
g8
F1.452658577026675
sg9
F103.78613999602942
sg10
I1
sg11
(I10
I12
tp1467
sbs(I6
I3
tp1468
g2
(g3
g4
Ntp1469
Rp1470
(dp1471
g8
F1.290916894256669
sg9
F103.71447439761765
sg10
I1
sg11
(I6
I3
tp1472
sbs(I11
I1
tp1473
g2
(g3
g4
Ntp1474
Rp1475
(dp1476
g8
F1.2549742980855563
sg9
F103.80405639563236
sg10
I1
sg11
(I11
I1
tp1477
sbs(I16
I7
tp1478
g2
(g3
g4
Ntp1479
Rp1480
(dp1481
g8
F1.3628020865988937
sg9
F103.89363839364705
sg10
I0
sg11
(I16
I7
tp1482
sbs(I7
I10
tp1483
g2
(g3
g4
Ntp1484
Rp1485
(dp1486
g8
F1.4167159808555625
sg9
F103.73239079722059
sg10
I0
sg11
(I7
I10
tp1487
sbs(I20
I1
tp1488
g2
(g3
g4
Ntp1489
Rp1490
(dp1491
g8
F1.2549742980855563
sg9
F103.96530399205882
sg10
I2
sg11
(I20
I1
tp1492
sbs(I12
I10
tp1493
g2
(g3
g4
Ntp1494
Rp1495
(dp1496
g8
F1.4167159808555625
sg9
F103.8219727952353
sg10
I0
sg11
(I12
I10
tp1497
sbs(I19
I10
tp1498
g2
(g3
g4
Ntp1499
Rp1500
(dp1501
g8
F1.4167159808555625
sg9
F103.94738759245588
sg10
I2
sg11
(I19
I10
tp1502
sbs(I13
I11
tp1503
g2
(g3
g4
Ntp1504
Rp1505
(dp1506
g8
F1.4346872789411187
sg9
F103.83988919483824
sg10
I0
sg11
(I13
I11
tp1507
sbs(I20
I13
tp1508
g2
(g3
g4
Ntp1509
Rp1510
(dp1511
g8
F1.470629875112231
sg9
F103.96530399205882
sg10
I2
sg11
(I20
I13
tp1512
sbs(I18
I13
tp1513
g2
(g3
g4
Ntp1514
Rp1515
(dp1516
g8
F1.470629875112231
sg9
F103.92947119285294
sg10
I2
sg11
(I18
I13
tp1517
sbs(I0
I0
tp1518
g2
(g3
g4
Ntp1519
Rp1520
(dp1521
g8
F1.237003
sg9
F103.606976
sg10
I2
sg11
(I0
I0
tp1522
sbs(I21
I0
tp1523
g2
(g3
g4
Ntp1524
Rp1525
(dp1526
g8
F1.237003
sg9
F103.98322039166176
sg10
I2
sg11
(I21
I0
tp1527
sbs(I3
I13
tp1528
g2
(g3
g4
Ntp1529
Rp1530
(dp1531
g8
F1.470629875112231
sg9
F103.66072519880882
sg10
I2
sg11
(I3
I13
tp1532
sbs(I1
I13
tp1533
g2
(g3
g4
Ntp1534
Rp1535
(dp1536
g8
F1.470629875112231
sg9
F103.62489239960294
sg10
I2
sg11
(I1
I13
tp1537
sbs(I8
I11
tp1538
g2
(g3
g4
Ntp1539
Rp1540
(dp1541
g8
F1.4346872789411187
sg9
F103.75030719682353
sg10
I1
sg11
(I8
I11
tp1542
sbs(I2
I10
tp1543
g2
(g3
g4
Ntp1544
Rp1545
(dp1546
g8
F1.4167159808555625
sg9
F103.64280879920588
sg10
I2
sg11
(I2
I10
tp1547
sbs(I9
I10
tp1548
g2
(g3
g4
Ntp1549
Rp1550
(dp1551
g8
F1.4167159808555625
sg9
F103.76822359642647
sg10
I0
sg11
(I9
I10
tp1552
sbs(I10
I1
tp1553
g2
(g3
g4
Ntp1554
Rp1555
(dp1556
g8
F1.2549742980855563
sg9
F103.78613999602942
sg10
I1
sg11
(I10
I1
tp1557
sbs(I6
I12
tp1558
g2
(g3
g4
Ntp1559
Rp1560
(dp1561
g8
F1.452658577026675
sg9
F103.71447439761765
sg10
I2
sg11
(I6
I12
tp1562
sbs(I11
I12
tp1563
g2
(g3
g4
Ntp1564
Rp1565
(dp1566
g8
F1.452658577026675
sg9
F103.80405639563236
sg10
I1
sg11
(I11
I12
tp1567
sbs(I17
I4
tp1568
g2
(g3
g4
Ntp1569
Rp1570
(dp1571
g8
F1.308888192342225
sg9
F103.91155479325
sg10
I0
sg11
(I17
I4
tp1572
sbs(I7
I9
tp1573
g2
(g3
g4
Ntp1574
Rp1575
(dp1576
g8
F1.398744682770006
sg9
F103.73239079722059
sg10
I0
sg11
(I7
I9
tp1577
sbs(I14
I11
tp1578
g2
(g3
g4
Ntp1579
Rp1580
(dp1581
g8
F1.4346872789411187
sg9
F103.85780559444117
sg10
I1
sg11
(I14
I11
tp1582
sbs(I13
I1
tp1583
g2
(g3
g4
Ntp1584
Rp1585
(dp1586
g8
F1.2549742980855563
sg9
F103.83988919483824
sg10
I1
sg11
(I13
I1
tp1587
sbs(I19
I9
tp1588
g2
(g3
g4
Ntp1589
Rp1590
(dp1591
g8
F1.398744682770006
sg9
F103.94738759245588
sg10
I2
sg11
(I19
I9
tp1592
sbs(I18
I3
tp1593
g2
(g3
g4
Ntp1594
Rp1595
(dp1596
g8
F1.290916894256669
sg9
F103.92947119285294
sg10
I1
sg11
(I18
I3
tp1597
sbs(I17
I9
tp1598
g2
(g3
g4
Ntp1599
Rp1600
(dp1601
g8
F1.398744682770006
sg9
F103.91155479325
sg10
I1
sg11
(I17
I9
tp1602
sbs(I15
I2
tp1603
g2
(g3
g4
Ntp1604
Rp1605
(dp1606
g8
F1.2729455961711125
sg9
F103.87572199404411
sg10
I1
sg11
(I15
I2
tp1607
sbs(I20
I2
tp1608
g2
(g3
g4
Ntp1609
Rp1610
(dp1611
g8
F1.2729455961711125
sg9
F103.96530399205882
sg10
I2
sg11
(I20
I2
tp1612
sbs(I0
I13
tp1613
g2
(g3
g4
Ntp1614
Rp1615
(dp1616
g8
F1.470629875112231
sg9
F103.606976
sg10
I2
sg11
(I0
I13
tp1617
sbs(I22
I5
tp1618
g2
(g3
g4
Ntp1619
Rp1620
(dp1621
g8
F1.3268594904277813
sg9
F104.0011367912647
sg10
I0
sg11
(I22
I5
tp1622
sbs(I21
I3
tp1623
g2
(g3
g4
Ntp1624
Rp1625
(dp1626
g8
F1.290916894256669
sg9
F103.98322039166176
sg10
I2
sg11
(I21
I3
tp1627
sbs(I3
I8
tp1628
g2
(g3
g4
Ntp1629
Rp1630
(dp1631
g8
F1.3807733846844499
sg9
F103.66072519880882
sg10
I1
sg11
(I3
I8
tp1632
sbs(I2
I0
tp1633
g2
(g3
g4
Ntp1634
Rp1635
(dp1636
g8
F1.237003
sg9
F103.64280879920588
sg10
I2
sg11
(I2
I0
tp1637
sbs(I1
I8
tp1638
g2
(g3
g4
Ntp1639
Rp1640
(dp1641
g8
F1.3807733846844499
sg9
F103.62489239960294
sg10
I2
sg11
(I1
I8
tp1642
sbs(I8
I8
tp1643
g2
(g3
g4
Ntp1644
Rp1645
(dp1646
g8
F1.3807733846844499
sg9
F103.75030719682353
sg10
I0
sg11
(I8
I8
tp1647
sbs(I23
I0
tp1648
g2
(g3
g4
Ntp1649
Rp1650
(dp1651
g8
F1.237003
sg9
F104.01905319086765
sg10
I2
sg11
(I23
I0
tp1652
sbs(I22
I8
tp1653
g2
(g3
g4
Ntp1654
Rp1655
(dp1656
g8
F1.3807733846844499
sg9
F104.0011367912647
sg10
I1
sg11
(I22
I8
tp1657
sbs(I4
I3
tp1658
g2
(g3
g4
Ntp1659
Rp1660
(dp1661
g8
F1.290916894256669
sg9
F103.67864159841177
sg10
I1
sg11
(I4
I3
tp1662
sbs(I9
I5
tp1663
g2
(g3
g4
Ntp1664
Rp1665
(dp1666
g8
F1.3268594904277813
sg9
F103.76822359642647
sg10
I0
sg11
(I9
I5
tp1667
sbs(I23
I13
tp1668
g2
(g3
g4
Ntp1669
Rp1670
(dp1671
g8
F1.470629875112231
sg9
F104.01905319086765
sg10
I2
sg11
(I23
I13
tp1672
sbs(I5
I2
tp1673
g2
(g3
g4
Ntp1674
Rp1675
(dp1676
g8
F1.2729455961711125
sg9
F103.69655799801471
sg10
I2
sg11
(I5
I2
tp1677
sbs(I11
I6
tp1678
g2
(g3
g4
Ntp1679
Rp1680
(dp1681
g8
F1.3448307885133375
sg9
F103.80405639563236
sg10
I0
sg11
(I11
I6
tp1682
sbs(I10
I2
tp1683
g2
(g3
g4
Ntp1684
Rp1685
(dp1686
g8
F1.2729455961711125
sg9
F103.78613999602942
sg10
I0
sg11
(I10
I2
tp1687
sbs.